target datalayout = "e-m:e-p270:32:32-p271:32:32-p272:64:64-i64:64-i128:128-f80:128-n8:16:32:64-S128"
target triple = "x86_64-pc-linux-gnu"

%struct.hwloc_topology = type { i32, i32, i32, ptr, ptr, i64, [20 x i32], [20 x i32], i64, i64, i32, ptr, i64, ptr, i64, [6 x %struct.hwloc_special_level_s], ptr, ptr, %struct.hwloc_binding_hooks, %struct.hwloc_topology_support, %struct.hwloc_infos_s, ptr, ptr, i32, ptr, ptr, i32, i32, ptr, i32, i32, ptr, i32, i32, i32, [5 x float], i32, ptr, ptr, i32, i32, ptr, i32, %struct.hwloc_numanode_attr_s, i32, i32, ptr, i64, i32, ptr, ptr, ptr }
%struct.hwloc_special_level_s = type { i32, ptr, ptr, ptr }
%struct.hwloc_binding_hooks = type { ptr, ptr, ptr, ptr, ptr, ptr, ptr, ptr, ptr, ptr, ptr, ptr, ptr, ptr, ptr, ptr, ptr, ptr, ptr, ptr, ptr, ptr, ptr, ptr }
%struct.hwloc_topology_support = type { ptr, ptr, ptr, ptr }
%struct.hwloc_infos_s = type { ptr, i32, i32 }
%struct.hwloc_numanode_attr_s = type { i64, i32, ptr }

; Function Attrs: nounwind uwtable
define i32 @hwloc_distances_get_by_name(ptr noundef %0, ptr noundef %1, ptr noundef %2, ptr noundef %3, i64 noundef %4) #0 {
  %6 = alloca i32, align 4
  %7 = alloca ptr, align 8
  %8 = alloca ptr, align 8
  %9 = alloca ptr, align 8
  %10 = alloca ptr, align 8
  %11 = alloca i64, align 8
  store ptr %0, ptr %7, align 8, !tbaa !3
  store ptr %1, ptr %8, align 8, !tbaa !39
  store ptr %2, ptr %9, align 8, !tbaa !106
  store ptr %3, ptr %10, align 8, !tbaa !121
  store i64 %4, ptr %11, align 8, !tbaa !80
  %12 = load i64, ptr %11, align 8, !tbaa !80
  %13 = icmp ne i64 %12, 0
  br i1 %13, label %20, label %14

14:                                               ; preds = %5
  %15 = load ptr, ptr %7, align 8, !tbaa !3
  %16 = getelementptr inbounds nuw %struct.hwloc_topology, ptr %15, i32 0, i32 8
  %17 = load i64, ptr %16, align 8, !tbaa !67
  %18 = and i64 %17, 2
  %19 = icmp ne i64 %18, 0
  br i1 %19, label %22, label %20

20:                                               ; preds = %14, %5
  %21 = call ptr @__errno_location() #17
  store i32 22, ptr %21, align 4, !tbaa !38
  store i32 -1, ptr %6, align 4
  br label %29

22:                                               ; preds = %14
  %23 = load ptr, ptr %7, align 8, !tbaa !3
  %24 = load ptr, ptr %8, align 8, !tbaa !39
  %25 = load ptr, ptr %9, align 8, !tbaa !106
  %26 = load ptr, ptr %10, align 8, !tbaa !121
  %27 = load i64, ptr %11, align 8, !tbaa !80
  %28 = call i32 @hwloc__distances_get(ptr noundef %23, ptr noundef %24, i32 noundef -1, ptr noundef %25, ptr noundef %26, i64 noundef 63, i64 noundef %27)
  store i32 %28, ptr %6, align 4
  br label %29

29:                                               ; preds = %22, %20
  %30 = load i32, ptr %6, align 4
  ret i32 %30
}